Certificate:
    Data:
        Version: 3 (0x2)
        Serial Number: 2 (0x2)
        Signature Algorithm: sha256WithRSAEncryption
        Issuer: C=FR, ST=Radius, L=Somewhere, O=Example Inc./emailAddress=admin@example.org, CN=Example Certificate Authority
        Validity
            Not Before: Jan 21 14:49:59 2021 GMT
            Not After : Mar 22 14:49:59 2021 GMT
        Subject: C=FR, ST=Radius, O=Example Inc., CN=user@example.org/emailAddress=user@example.org
        Subject Public Key Info:
            Public Key Algorithm: rsaEncryption
                RSA Public-Key: (2048 bit)
                Modulus:
                    00:ac:3e:a9:f2:80:49:03:74:aa:2b:f0:c0:1f:07:
                    88:83:72:7e:97:6f:e5:96:2d:9d:c3:ff:34:fc:5a:
                    15:c3:ba:9c:f6:43:5a:f2:f4:42:41:2e:f0:22:4a:
                    1a:f9:f7:9c:ea:2b:68:09:fb:33:0f:fc:9e:f6:9c:
                    1f:b2:3c:ad:ae:34:9d:9d:c2:d0:d6:a2:6c:1b:b2:
                    c7:e0:a6:0c:0b:c8:b2:8a:61:ad:69:45:b7:f5:10:
                    58:f8:62:05:c8:80:56:2b:e0:e1:fb:c3:8e:56:5c:
                    d8:94:bb:cd:45:b3:96:2f:16:c3:5d:06:91:62:31:
                    8e:8e:dc:52:73:2c:9f:47:fa:d6:21:b2:62:cb:e7:
                    ae:52:5e:7b:12:34:13:21:bd:f5:3e:92:30:25:f3:
                    23:12:00:e2:ae:cb:be:75:fb:b7:6b:78:ca:9e:e3:
                    50:75:fd:7c:61:dd:b8:26:15:3e:31:fc:1f:5f:b7:
                    a2:b8:91:4b:57:ef:b9:47:36:f3:27:e2:8b:a2:2a:
                    6f:91:70:44:8e:03:71:61:13:df:a8:af:5c:d8:66:
                    d8:a2:bd:86:17:4f:3e:c9:3d:79:d9:c4:d8:3c:e2:
                    04:43:11:df:14:b4:15:4a:e2:02:20:dd:83:3b:8b:
                    6d:69:b3:ff:6c:cb:47:f2:31:9c:ef:6a:cf:76:c3:
                    c2:07
                Exponent: 65537 (0x10001)
        X509v3 extensions:
            X509v3 Extended Key Usage: 
                TLS Web Client Authentication
            X509v3 CRL Distribution Points: 

                Full Name:
                  URI:http://www.example.com/example_ca.crl

    Signature Algorithm: sha256WithRSAEncryption
         7e:8c:d6:d5:37:fb:65:65:be:7e:7b:15:9d:6a:25:28:34:ae:
         f7:99:ee:4c:de:d6:68:44:b2:fc:41:a8:74:28:3b:0b:b9:4e:
         68:78:2e:53:84:9e:0c:83:67:30:ef:1e:35:60:3f:0a:7c:b3:
         e3:85:82:ca:ff:0b:8a:ae:f0:7f:ab:b7:e9:8e:f7:ab:c6:f6:
         20:07:ee:a4:d2:f8:87:fa:bb:18:c1:16:26:c5:8e:ee:94:b7:
         b8:e6:b2:b2:e7:66:8e:b9:9b:9e:2a:98:88:89:b2:fb:74:fd:
         18:db:42:e5:aa:be:67:2d:ba:05:8d:3f:6b:f8:46:3d:c9:7d:
         3a:66:18:aa:b6:5a:7f:d7:87:4f:18:27:e0:b7:93:a0:7a:18:
         96:a5:26:f5:19:a8:b4:e5:76:99:38:f5:75:68:66:da:4e:ef:
         8e:04:65:49:46:cc:60:e7:8f:72:73:d9:b4:cb:aa:c3:39:71:
         52:26:ba:a8:6c:43:34:0a:02:44:17:6a:c4:65:2a:d2:43:e6:
         f7:7e:dd:e7:c7:c4:37:4d:99:c5:48:31:fa:0a:f6:c3:95:05:
         ba:b8:ec:e3:4a:aa:4b:0f:b8:1a:b8:d1:83:e0:3a:f5:43:4c:
         09:7b:07:59:87:13:74:84:0a:11:6f:86:2b:d5:42:e4:df:f8:
         8a:77:5c:67
-----BEGIN CERTIFICATE-----
MIIDzzCCAregAwIBAgIBAjANBgkqhkiG9w0BAQsFADCBkzELMAkGA1UEBhMCRlIx
DzANBgNVBAgMBlJhZGl1czESMBAGA1UEBwwJU29tZXdoZXJlMRUwEwYDVQQKDAxF
eGFtcGxlIEluYy4xIDAeBgkqhkiG9w0BCQEWEWFkbWluQGV4YW1wbGUub3JnMSYw
JAYDVQQDDB1FeGFtcGxlIENlcnRpZmljYXRlIEF1dGhvcml0eTAeFw0yMTAxMjEx
NDQ5NTlaFw0yMTAzMjIxNDQ5NTlaMHExCzAJBgNVBAYTAkZSMQ8wDQYDVQQIDAZS
YWRpdXMxFTATBgNVBAoMDEV4YW1wbGUgSW5jLjEZMBcGA1UEAwwQdXNlckBleGFt
cGxlLm9yZzEfMB0GCSqGSIb3DQEJARYQdXNlckBleGFtcGxlLm9yZzCCASIwDQYJ
KoZIhvcNAQEBBQADggEPADCCAQoCggEBAKw+qfKASQN0qivwwB8HiINyfpdv5ZYt
ncP/NPxaFcO6nPZDWvL0QkEu8CJKGvn3nOoraAn7Mw/8nvacH7I8ra40nZ3C0Nai
bBuyx+CmDAvIsophrWlFt/UQWPhiBciAVivg4fvDjlZc2JS7zUWzli8Ww10GkWIx
jo7cUnMsn0f61iGyYsvnrlJeexI0EyG99T6SMCXzIxIA4q7LvnX7t2t4yp7jUHX9
fGHduCYVPjH8H1+3oriRS1fvuUc28yfii6Iqb5FwRI4DcWET36ivXNhm2KK9hhdP
Psk9ednE2DziBEMR3xS0FUriAiDdgzuLbWmz/2zLR/IxnO9qz3bDwgcCAwEAAaNP
ME0wEwYDVR0lBAwwCgYIKwYBBQUHAwIwNgYDVR0fBC8wLTAroCmgJ4YlaHR0cDov
L3d3dy5leGFtcGxlLmNvbS9leGFtcGxlX2NhLmNybDANBgkqhkiG9w0BAQsFAAOC
AQEAfozW1Tf7ZWW+fnsVnWolKDSu95nuTN7WaESy/EGodCg7C7lOaHguU4SeDINn
MO8eNWA/Cnyz44WCyv8Liq7wf6u36Y73q8b2IAfupNL4h/q7GMEWJsWO7pS3uOay
sudmjrmbniqYiImy+3T9GNtC5aq+Zy26BY0/a/hGPcl9OmYYqrZaf9eHTxgn4LeT
oHoYlqUm9RmotOV2mTj1dWhm2k7vjgRlSUbMYOePcnPZtMuqwzlxUia6qGxDNAoC
RBdqxGUq0kPm937d58fEN02ZxUgx+gr2w5UFurjs40qqSw+4GrjRg+A69UNMCXsH
WYcTdIQKEW+GK9VC5N/4indcZw==
-----END CERTIFICATE-----
