Certificate:
    Data:
        Version: 3 (0x2)
        Serial Number: 1 (0x1)
        Signature Algorithm: sha256WithRSAEncryption
        Issuer: C=FR, ST=Radius, L=Somewhere, O=Example Inc./emailAddress=admin@example.org, CN=Example Certificate Authority
        Validity
            Not Before: Jan 21 14:49:58 2021 GMT
            Not After : Mar 22 14:49:58 2021 GMT
        Subject: C=FR, ST=Radius, O=Example Inc., CN=Example Server Certificate/emailAddress=admin@example.org
        Subject Public Key Info:
            Public Key Algorithm: rsaEncryption
                RSA Public-Key: (2048 bit)
                Modulus:
                    00:b1:68:e9:ad:06:2c:30:d1:f3:c8:a0:5b:08:40:
                    69:5a:8e:fc:71:49:52:a8:72:2a:29:32:05:c9:4a:
                    6f:83:1e:31:3c:f7:1d:01:f0:ca:bf:82:6a:75:20:
                    af:f8:24:bc:28:0c:15:49:a4:f2:47:fa:3a:5f:da:
                    84:1e:f7:7f:ab:13:83:db:04:38:c8:b0:50:cf:a7:
                    94:09:b4:99:81:0d:89:10:ad:b6:79:e2:fa:d7:3d:
                    7a:7c:ed:7b:7f:f9:e2:ad:a9:cd:94:42:e4:00:6a:
                    6c:28:6d:bb:2f:7c:e0:53:9e:7b:65:56:62:ee:ed:
                    c6:8e:af:a7:b8:89:34:03:43:1a:7a:cd:fa:3a:43:
                    25:2c:1c:a1:00:c3:40:08:d2:8d:23:23:6a:fc:ed:
                    bc:2e:ca:4f:0b:e4:ed:bd:61:bc:0d:ef:fc:36:8e:
                    8d:e3:d5:02:a2:5f:9c:19:70:df:88:f4:d6:fa:da:
                    fe:2f:4a:72:ed:1e:64:5f:3f:52:f5:e5:66:28:c2:
                    e5:e8:20:7b:55:fa:f9:d3:27:27:c8:64:92:20:d9:
                    fc:5c:3f:39:7c:1f:b6:ad:46:5d:cc:d8:21:b7:08:
                    81:52:5b:4e:02:3b:1a:28:5f:a9:41:64:30:5d:46:
                    f0:e2:cd:20:52:52:c3:9d:b5:38:08:f1:a9:0c:20:
                    56:1b
                Exponent: 65537 (0x10001)
        X509v3 extensions:
            X509v3 Extended Key Usage: 
                TLS Web Server Authentication
            X509v3 CRL Distribution Points: 

                Full Name:
                  URI:http://www.example.com/example_ca.crl

            X509v3 Certificate Policies: 
                Policy: 1.3.6.1.4.1.40808.1.3.2

    Signature Algorithm: sha256WithRSAEncryption
         6b:5d:42:34:5a:b3:82:d7:b2:7f:02:c7:cb:38:c5:53:20:7b:
         2e:67:f4:71:39:94:14:ee:d5:20:74:7d:55:fe:86:82:21:4e:
         e3:e6:06:8a:f8:f2:9e:bb:b8:bf:7d:32:44:e0:28:a2:ec:b2:
         c4:3d:81:6f:d7:8d:b2:af:80:bb:d9:4e:b0:41:37:60:b4:d9:
         57:88:39:d6:c1:8d:f4:76:33:0e:42:21:65:98:f9:53:68:b7:
         ed:b5:ff:2c:77:40:6d:1c:1a:c0:60:15:ae:49:10:9c:ed:a8:
         20:ed:fc:7b:3f:2d:42:26:a0:76:72:cf:fb:f6:d7:a1:ee:d5:
         13:78:be:68:d6:e0:30:12:80:0b:a4:53:06:73:3c:60:98:36:
         4b:1a:fe:63:d0:4d:ab:72:82:1f:67:e8:24:60:fb:9e:db:55:
         d2:15:8f:31:ba:c2:f2:02:3d:0d:8f:ba:2a:d8:f3:ce:93:47:
         5e:81:20:be:4d:98:43:30:33:00:c5:f6:e7:f6:d7:f3:2e:b7:
         03:83:01:16:33:59:de:e8:00:e3:71:01:9b:c3:54:0d:c2:d5:
         43:0e:f2:a8:30:32:0e:fb:75:45:90:12:39:ee:c6:1e:87:bb:
         32:fb:c1:1b:c9:36:91:c3:c8:a6:04:29:14:da:0b:93:a1:4d:
         c0:12:e2:ad
-----BEGIN CERTIFICATE-----
MIID9DCCAtygAwIBAgIBATANBgkqhkiG9w0BAQsFADCBkzELMAkGA1UEBhMCRlIx
DzANBgNVBAgMBlJhZGl1czESMBAGA1UEBwwJU29tZXdoZXJlMRUwEwYDVQQKDAxF
eGFtcGxlIEluYy4xIDAeBgkqhkiG9w0BCQEWEWFkbWluQGV4YW1wbGUub3JnMSYw
JAYDVQQDDB1FeGFtcGxlIENlcnRpZmljYXRlIEF1dGhvcml0eTAeFw0yMTAxMjEx
NDQ5NThaFw0yMTAzMjIxNDQ5NThaMHwxCzAJBgNVBAYTAkZSMQ8wDQYDVQQIDAZS
YWRpdXMxFTATBgNVBAoMDEV4YW1wbGUgSW5jLjEjMCEGA1UEAwwaRXhhbXBsZSBT
ZXJ2ZXIgQ2VydGlmaWNhdGUxIDAeBgkqhkiG9w0BCQEWEWFkbWluQGV4YW1wbGUu
b3JnMIIBIjANBgkqhkiG9w0BAQEFAAOCAQ8AMIIBCgKCAQEAsWjprQYsMNHzyKBb
CEBpWo78cUlSqHIqKTIFyUpvgx4xPPcdAfDKv4JqdSCv+CS8KAwVSaTyR/o6X9qE
Hvd/qxOD2wQ4yLBQz6eUCbSZgQ2JEK22eeL61z16fO17f/niranNlELkAGpsKG27
L3zgU557ZVZi7u3Gjq+nuIk0A0Maes36OkMlLByhAMNACNKNIyNq/O28LspPC+Tt
vWG8De/8No6N49UCol+cGXDfiPTW+tr+L0py7R5kXz9S9eVmKMLl6CB7Vfr50ycn
yGSSINn8XD85fB+2rUZdzNghtwiBUltOAjsaKF+pQWQwXUbw4s0gUlLDnbU4CPGp
DCBWGwIDAQABo2kwZzATBgNVHSUEDDAKBggrBgEFBQcDATA2BgNVHR8ELzAtMCug
KaAnhiVodHRwOi8vd3d3LmV4YW1wbGUuY29tL2V4YW1wbGVfY2EuY3JsMBgGA1Ud
IAQRMA8wDQYLKwYBBAGCvmgBAwIwDQYJKoZIhvcNAQELBQADggEBAGtdQjRas4LX
sn8Cx8s4xVMgey5n9HE5lBTu1SB0fVX+hoIhTuPmBor48p67uL99MkTgKKLsssQ9
gW/XjbKvgLvZTrBBN2C02VeIOdbBjfR2Mw5CIWWY+VNot+21/yx3QG0cGsBgFa5J
EJztqCDt/Hs/LUImoHZyz/v216Hu1RN4vmjW4DASgAukUwZzPGCYNksa/mPQTaty
gh9n6CRg+57bVdIVjzG6wvICPQ2PuirY886TR16BIL5NmEMwMwDF9uf21/MutwOD
ARYzWd7oAONxAZvDVA3C1UMO8qgwMg77dUWQEjnuxh6HuzL7wRvJNpHDyKYEKRTa
C5OhTcAS4q0=
-----END CERTIFICATE-----
