Certificate:
    Data:
        Version: 3 (0x2)
        Serial Number: 1 (0x1)
        Signature Algorithm: sha256WithRSAEncryption
        Issuer: C=FR, ST=Radius, L=Somewhere, O=Example Inc./emailAddress=admin@example.org, CN=Example Certificate Authority
        Validity
            Not Before: Mar 27 16:35:55 2023 GMT
            Not After : May 26 16:35:55 2023 GMT
        Subject: C=FR, ST=Radius, O=Example Inc., CN=Example Server Certificate/emailAddress=admin@example.org
        Subject Public Key Info:
            Public Key Algorithm: rsaEncryption
                Public-Key: (2048 bit)
                Modulus:
                    00:b7:df:7a:6e:aa:3c:12:0c:2b:cb:83:94:8f:7a:
                    e0:ad:7c:13:59:f5:7c:21:f7:06:3d:e7:03:cd:25:
                    9f:0a:04:90:2d:02:17:40:b4:7e:4c:ea:ca:91:25:
                    4c:e2:6b:af:35:b1:ed:e6:08:bf:b5:96:38:4a:d6:
                    68:1b:b2:9b:ac:a0:84:1f:da:c8:53:48:7f:6e:6e:
                    79:ac:54:68:8c:91:88:66:29:18:57:22:04:fe:e1:
                    6d:94:e3:71:df:3c:30:94:82:cc:fb:cc:06:8b:23:
                    4c:eb:58:01:9c:e7:68:7b:35:6d:ed:35:8d:96:25:
                    cc:4b:90:28:ad:37:32:d6:10:21:e6:a4:28:19:33:
                    b7:ce:87:9d:f1:a5:83:99:7d:8b:ba:f1:ad:2b:14:
                    53:33:d6:36:8a:e9:15:7e:9f:42:37:a7:a3:59:c8:
                    5d:52:81:d4:f8:2a:78:15:dc:bb:34:ea:fb:60:d4:
                    e4:73:cb:93:3a:5b:b4:07:33:19:07:51:65:ef:37:
                    16:e2:05:01:c9:78:30:76:49:be:81:04:d9:5d:81:
                    71:bb:0c:f1:56:02:53:92:0b:58:6b:ea:a4:58:42:
                    dd:9d:60:42:8b:b8:70:bd:61:14:41:89:ec:3e:91:
                    ec:14:85:69:ec:72:b0:6c:50:93:b3:c4:a3:83:99:
                    cb:f5
                Exponent: 65537 (0x10001)
        X509v3 extensions:
            X509v3 Extended Key Usage: 
                TLS Web Server Authentication
            X509v3 CRL Distribution Points: 
                Full Name:
                  URI:http://www.example.com/example_ca.crl
            X509v3 Certificate Policies: 
                Policy: 1.3.6.1.4.1.40808.1.3.2
            X509v3 Subject Key Identifier: 
                49:C2:00:EF:40:F6:70:DC:83:99:BF:40:A3:1B:E6:45:86:1A:FA:B0
            X509v3 Authority Key Identifier: 
                BE:4C:40:01:36:C2:92:EC:7F:83:10:0B:D0:14:72:61:E2:00:2E:2E
    Signature Algorithm: sha256WithRSAEncryption
    Signature Value:
        79:9f:84:9e:8c:ed:e8:22:46:ae:2d:82:12:a4:95:2c:03:a2:
        11:17:ed:da:84:ff:e3:04:61:b9:12:68:fc:94:aa:ac:47:99:
        84:3a:d5:d3:a6:ee:c4:3d:ed:76:a1:c7:c2:be:3c:41:a0:46:
        46:b3:6f:7c:ab:ea:91:ed:a5:80:59:e7:bd:d1:c2:83:86:45:
        84:b3:9c:ab:b9:ef:4d:36:14:cf:ea:7b:4c:29:f9:68:5a:3a:
        63:11:54:e6:84:48:9e:61:79:5d:63:a4:ad:3b:53:a7:2f:cc:
        c7:dd:8a:3e:bf:77:78:00:99:36:2e:3e:35:cf:c7:aa:d4:64:
        e6:e9:7f:e8:43:de:4c:78:48:a0:9c:2a:e6:fd:16:03:77:23:
        00:97:6c:76:c3:37:8c:76:e1:98:b8:8b:b6:f1:9b:ed:e2:92:
        53:ec:de:53:71:cd:fa:4b:3e:84:27:69:44:27:ba:91:90:c5:
        d3:be:61:f3:a6:1b:ca:2a:c2:6e:68:2a:5a:29:dd:08:ad:a0:
        53:6b:3a:40:71:ca:b2:6c:8b:4d:da:95:5e:25:01:5c:36:b5:
        08:34:da:f6:1f:3b:09:47:0e:9e:aa:5b:45:3b:ba:ec:41:17:
        58:c1:a6:b7:3f:6b:49:11:17:3e:93:d6:43:ec:42:12:7b:77:
        b7:ad:dd:e9
-----BEGIN CERTIFICATE-----
MIIENjCCAx6gAwIBAgIBATANBgkqhkiG9w0BAQsFADCBkzELMAkGA1UEBhMCRlIx
DzANBgNVBAgMBlJhZGl1czESMBAGA1UEBwwJU29tZXdoZXJlMRUwEwYDVQQKDAxF
eGFtcGxlIEluYy4xIDAeBgkqhkiG9w0BCQEWEWFkbWluQGV4YW1wbGUub3JnMSYw
JAYDVQQDDB1FeGFtcGxlIENlcnRpZmljYXRlIEF1dGhvcml0eTAeFw0yMzAzMjcx
NjM1NTVaFw0yMzA1MjYxNjM1NTVaMHwxCzAJBgNVBAYTAkZSMQ8wDQYDVQQIDAZS
YWRpdXMxFTATBgNVBAoMDEV4YW1wbGUgSW5jLjEjMCEGA1UEAwwaRXhhbXBsZSBT
ZXJ2ZXIgQ2VydGlmaWNhdGUxIDAeBgkqhkiG9w0BCQEWEWFkbWluQGV4YW1wbGUu
b3JnMIIBIjANBgkqhkiG9w0BAQEFAAOCAQ8AMIIBCgKCAQEAt996bqo8Egwry4OU
j3rgrXwTWfV8IfcGPecDzSWfCgSQLQIXQLR+TOrKkSVM4muvNbHt5gi/tZY4StZo
G7KbrKCEH9rIU0h/bm55rFRojJGIZikYVyIE/uFtlONx3zwwlILM+8wGiyNM61gB
nOdoezVt7TWNliXMS5AorTcy1hAh5qQoGTO3zoed8aWDmX2LuvGtKxRTM9Y2iukV
fp9CN6ejWchdUoHU+Cp4Fdy7NOr7YNTkc8uTOlu0BzMZB1Fl7zcW4gUByXgwdkm+
gQTZXYFxuwzxVgJTkgtYa+qkWELdnWBCi7hwvWEUQYnsPpHsFIVp7HKwbFCTs8Sj
g5nL9QIDAQABo4GqMIGnMBMGA1UdJQQMMAoGCCsGAQUFBwMBMDYGA1UdHwQvMC0w
K6ApoCeGJWh0dHA6Ly93d3cuZXhhbXBsZS5jb20vZXhhbXBsZV9jYS5jcmwwGAYD
VR0gBBEwDzANBgsrBgEEAYK+aAEDAjAdBgNVHQ4EFgQUScIA70D2cNyDmb9Aoxvm
RYYa+rAwHwYDVR0jBBgwFoAUvkxAATbCkux/gxAL0BRyYeIALi4wDQYJKoZIhvcN
AQELBQADggEBAHmfhJ6M7egiRq4tghKklSwDohEX7dqE/+MEYbkSaPyUqqxHmYQ6
1dOm7sQ97Xahx8K+PEGgRkazb3yr6pHtpYBZ573RwoOGRYSznKu57002FM/qe0wp
+WhaOmMRVOaESJ5heV1jpK07U6cvzMfdij6/d3gAmTYuPjXPx6rUZObpf+hD3kx4
SKCcKub9FgN3IwCXbHbDN4x24Zi4i7bxm+3iklPs3lNxzfpLPoQnaUQnupGQxdO+
YfOmG8oqwm5oKlop3QitoFNrOkBxyrJsi03alV4lAVw2tQg02vYfOwlHDp6qW0U7
uuxBF1jBprc/a0kRFz6T1kPsQhJ7d7et3ek=
-----END CERTIFICATE-----
