Certificate:
    Data:
        Version: 3 (0x2)
        Serial Number: 2 (0x2)
        Signature Algorithm: sha256WithRSAEncryption
        Issuer: C=FR, ST=Radius, L=Somewhere, O=Example Inc./emailAddress=admin@example.org, CN=Example Certificate Authority
        Validity
            Not Before: Mar 27 16:35:56 2023 GMT
            Not After : May 26 16:35:56 2023 GMT
        Subject: C=FR, ST=Radius, O=Example Inc., CN=user@example.org/emailAddress=user@example.org
        Subject Public Key Info:
            Public Key Algorithm: rsaEncryption
                Public-Key: (2048 bit)
                Modulus:
                    00:9a:6d:7b:e7:b7:de:8a:53:bf:31:18:b1:4a:b3:
                    73:ca:ef:c9:23:0e:97:8e:ee:47:e9:7e:d5:57:e8:
                    3d:ca:a3:7b:11:f5:f8:9d:5e:18:d6:e4:d4:f8:24:
                    af:b8:89:cc:f1:bf:73:11:75:aa:94:4d:37:56:8a:
                    22:ac:28:cc:66:64:c9:24:98:15:71:8b:aa:a9:94:
                    ef:d2:ad:b4:a9:87:72:bd:55:4e:ff:47:43:11:42:
                    a0:1a:43:ba:77:40:54:a1:46:9a:34:f1:af:4f:5c:
                    29:21:d5:db:35:93:15:9b:87:11:04:3f:c6:db:17:
                    db:e6:4b:ce:f1:2c:ea:76:3c:be:95:83:51:31:72:
                    74:59:9b:1e:f5:3a:b6:8e:d8:a6:28:03:3f:5e:f3:
                    8b:c1:3e:fa:51:c6:b2:6f:af:88:a6:3f:7c:a3:1a:
                    1f:78:f7:26:ec:36:4b:60:b4:db:88:ef:8e:25:07:
                    01:54:02:60:39:92:e0:ea:66:10:92:87:f7:bf:f8:
                    a8:75:4e:da:62:54:bb:0b:3d:a1:fd:be:86:0e:82:
                    88:c3:1d:f4:ff:e4:4f:93:26:47:08:26:14:34:b2:
                    56:b0:33:84:3b:a7:8c:f3:c4:be:59:87:f8:f4:33:
                    30:4d:b7:08:40:ab:44:2d:cc:0c:cf:e9:be:7e:bc:
                    1b:05
                Exponent: 65537 (0x10001)
        X509v3 extensions:
            X509v3 Extended Key Usage: 
                TLS Web Client Authentication
            X509v3 CRL Distribution Points: 
                Full Name:
                  URI:http://www.example.com/example_ca.crl
            X509v3 Subject Key Identifier: 
                BB:5B:AE:2C:B8:5C:33:0F:34:B9:1A:25:47:A4:BB:8E:60:4A:64:C8
            X509v3 Authority Key Identifier: 
                BE:4C:40:01:36:C2:92:EC:7F:83:10:0B:D0:14:72:61:E2:00:2E:2E
    Signature Algorithm: sha256WithRSAEncryption
    Signature Value:
        90:9c:eb:7b:96:02:17:55:11:2c:d9:20:6d:6f:7e:bd:42:14:
        39:27:06:57:00:d2:a2:1a:40:80:70:37:b0:bc:01:e6:b5:09:
        9c:cd:61:11:69:d7:d7:36:34:bf:a3:0a:b7:52:1a:9a:08:39:
        72:bd:b7:00:86:d1:f2:07:80:6b:ec:5b:f5:1e:2a:bf:42:0d:
        2b:3d:22:d4:05:d1:b9:07:58:96:54:13:85:1d:2d:f5:99:0c:
        f2:da:2e:81:68:c1:09:d8:cc:e7:14:c0:dc:ad:2f:6c:0c:07:
        0a:2d:08:a4:3d:f4:4c:c3:61:67:5a:26:63:65:3e:08:6e:58:
        af:5e:1b:1f:aa:86:91:46:96:29:13:fe:72:ea:85:8c:1b:87:
        16:c4:a8:bc:95:d4:f6:70:c5:72:68:2d:96:cc:86:3b:60:14:
        52:b5:00:1e:54:ed:8a:c9:fb:49:58:d2:88:01:18:fc:26:9f:
        2a:2c:ff:75:fb:e2:dc:e4:fd:d1:eb:70:d2:56:30:1a:47:bd:
        75:ce:ce:b7:c4:49:de:db:d0:14:ee:96:e3:5c:43:42:91:2b:
        6e:fb:28:ae:0b:4a:18:8e:9f:2a:ee:b5:47:42:6a:6d:42:f6:
        42:2a:26:4c:e7:f7:43:c9:40:68:b9:5f:22:1e:ad:bb:52:a2:
        72:1c:a1:20
-----BEGIN CERTIFICATE-----
MIIEETCCAvmgAwIBAgIBAjANBgkqhkiG9w0BAQsFADCBkzELMAkGA1UEBhMCRlIx
DzANBgNVBAgMBlJhZGl1czESMBAGA1UEBwwJU29tZXdoZXJlMRUwEwYDVQQKDAxF
eGFtcGxlIEluYy4xIDAeBgkqhkiG9w0BCQEWEWFkbWluQGV4YW1wbGUub3JnMSYw
JAYDVQQDDB1FeGFtcGxlIENlcnRpZmljYXRlIEF1dGhvcml0eTAeFw0yMzAzMjcx
NjM1NTZaFw0yMzA1MjYxNjM1NTZaMHExCzAJBgNVBAYTAkZSMQ8wDQYDVQQIDAZS
YWRpdXMxFTATBgNVBAoMDEV4YW1wbGUgSW5jLjEZMBcGA1UEAwwQdXNlckBleGFt
cGxlLm9yZzEfMB0GCSqGSIb3DQEJARYQdXNlckBleGFtcGxlLm9yZzCCASIwDQYJ
KoZIhvcNAQEBBQADggEPADCCAQoCggEBAJpte+e33opTvzEYsUqzc8rvySMOl47u
R+l+1VfoPcqjexH1+J1eGNbk1Pgkr7iJzPG/cxF1qpRNN1aKIqwozGZkySSYFXGL
qqmU79KttKmHcr1VTv9HQxFCoBpDundAVKFGmjTxr09cKSHV2zWTFZuHEQQ/xtsX
2+ZLzvEs6nY8vpWDUTFydFmbHvU6to7YpigDP17zi8E++lHGsm+viKY/fKMaH3j3
Juw2S2C024jvjiUHAVQCYDmS4OpmEJKH97/4qHVO2mJUuws9of2+hg6CiMMd9P/k
T5MmRwgmFDSyVrAzhDunjPPEvlmH+PQzME23CECrRC3MDM/pvn68GwUCAwEAAaOB
kDCBjTATBgNVHSUEDDAKBggrBgEFBQcDAjA2BgNVHR8ELzAtMCugKaAnhiVodHRw
Oi8vd3d3LmV4YW1wbGUuY29tL2V4YW1wbGVfY2EuY3JsMB0GA1UdDgQWBBS7W64s
uFwzDzS5GiVHpLuOYEpkyDAfBgNVHSMEGDAWgBS+TEABNsKS7H+DEAvQFHJh4gAu
LjANBgkqhkiG9w0BAQsFAAOCAQEAkJzre5YCF1URLNkgbW9+vUIUOScGVwDSohpA
gHA3sLwB5rUJnM1hEWnX1zY0v6MKt1Iamgg5cr23AIbR8geAa+xb9R4qv0INKz0i
1AXRuQdYllQThR0t9ZkM8tougWjBCdjM5xTA3K0vbAwHCi0IpD30TMNhZ1omY2U+
CG5Yr14bH6qGkUaWKRP+cuqFjBuHFsSovJXU9nDFcmgtlsyGO2AUUrUAHlTtisn7
SVjSiAEY/CafKiz/dfvi3OT90etw0lYwGke9dc7Ot8RJ3tvQFO6W41xDQpErbvso
rgtKGI6fKu61R0JqbUL2QiomTOf3Q8lAaLlfIh6tu1KichyhIA==
-----END CERTIFICATE-----
